target datalayout = "e-m:e-p270:32:32-p271:32:32-p272:64:64-i64:64-i128:128-f80:128-n8:16:32:64-S128"
target triple = "x86_64-pc-linux-gnu"

%"class.colvarmodule::rvector" = type { double, double, double }
%"class.colvarmodule::quaternion" = type { double, double, double, double }
%"class.colvarmodule::rotation" = type { %"class.colvarmodule::rmatrix", [4 x [4 x double]], [4 x double], [4 x [4 x double]], [4 x [4 x double]], i8, %"class.colvarmodule::quaternion", %"class.colvarmodule::quaternion", ptr }
%"class.colvarmodule::rmatrix" = type { double, double, double, double, double, double, double, double, double }
%"struct.std::_Vector_base.41" = type { %"struct.std::_Vector_base<colvarmodule::rvector, std::allocator<colvarmodule::rvector>>::_Vector_impl" }
%"struct.std::_Vector_base<colvarmodule::rvector, std::allocator<colvarmodule::rvector>>::_Vector_impl" = type { %"struct.std::_Vector_base<colvarmodule::rvector, std::allocator<colvarmodule::rvector>>::_Vector_impl_data" }
%"struct.std::_Vector_base<colvarmodule::rvector, std::allocator<colvarmodule::rvector>>::_Vector_impl_data" = type { ptr, ptr, ptr }

; Function Attrs: mustprogress nounwind uwtable
define linkonce_odr noundef nonnull align 8 dereferenceable(24) ptr @_ZNKSt6vectorIN12colvarmodule7rvectorESaIS1_EEixEm(ptr noundef nonnull align 8 dereferenceable(24) %0, i64 noundef %1) #2 comdat align 2 {
  %3 = alloca ptr, align 8
  %4 = alloca i64, align 8
  store ptr %0, ptr %3, align 8, !tbaa !146
  store i64 %1, ptr %4, align 8, !tbaa !11
  %5 = load ptr, ptr %3, align 8
  %6 = getelementptr inbounds nuw %"struct.std::_Vector_base.41", ptr %5, i32 0, i32 0
  %7 = getelementptr inbounds nuw %"struct.std::_Vector_base<colvarmodule::rvector, std::allocator<colvarmodule::rvector>>::_Vector_impl_data", ptr %6, i32 0, i32 0
  %8 = load ptr, ptr %7, align 8, !tbaa !161
  %9 = load i64, ptr %4, align 8, !tbaa !11
  %10 = getelementptr inbounds nuw %"class.colvarmodule::rvector", ptr %8, i64 %9
  ret ptr %10
}

; Function Attrs: mustprogress nounwind uwtable
define linkonce_odr noundef i64 @_ZNKSt6vectorIN12colvarmodule7rvectorESaIS1_EE4sizeEv(ptr noundef nonnull align 8 dereferenceable(24) %0) #2 comdat align 2 {
  %2 = alloca ptr, align 8
  store ptr %0, ptr %2, align 8, !tbaa !146
  %3 = load ptr, ptr %2, align 8
  %4 = getelementptr inbounds nuw %"struct.std::_Vector_base.41", ptr %3, i32 0, i32 0
  %5 = getelementptr inbounds nuw %"struct.std::_Vector_base<colvarmodule::rvector, std::allocator<colvarmodule::rvector>>::_Vector_impl_data", ptr %4, i32 0, i32 1
  %6 = load ptr, ptr %5, align 8, !tbaa !159
  %7 = getelementptr inbounds nuw %"struct.std::_Vector_base.41", ptr %3, i32 0, i32 0
  %8 = getelementptr inbounds nuw %"struct.std::_Vector_base<colvarmodule::rvector, std::allocator<colvarmodule::rvector>>::_Vector_impl_data", ptr %7, i32 0, i32 0
  %9 = load ptr, ptr %8, align 8, !tbaa !161
  %10 = ptrtoint ptr %6 to i64
  %11 = ptrtoint ptr %9 to i64
  %12 = sub i64 %10, %11
  %13 = sdiv exact i64 %12, 24
  ret i64 %13
}

; Function Attrs: mustprogress nounwind uwtable
define void @_ZN12colvarmodule8rotation24build_correlation_matrixERKSt6vectorINS_7rvectorESaIS2_EES6_(ptr noundef nonnull align 8 dereferenceable(568) %0, ptr noundef nonnull align 8 dereferenceable(24) %1, ptr noundef nonnull align 8 dereferenceable(24) %2) #2 align 2 {
  %4 = alloca ptr, align 8
  %5 = alloca ptr, align 8
  %6 = alloca ptr, align 8
  %7 = alloca i64, align 8
  store ptr %0, ptr %4, align 8, !tbaa !127
  store ptr %1, ptr %5, align 8, !tbaa !146
  store ptr %2, ptr %6, align 8, !tbaa !146
  %8 = load ptr, ptr %4, align 8
  call void @llvm.lifetime.start.p0(i64 8, ptr %7) #16
  store i64 0, ptr %7, align 8, !tbaa !11
  br label %9

9:                                                ; preds = %141, %3
  %10 = load i64, ptr %7, align 8, !tbaa !11
  %11 = load ptr, ptr %5, align 8, !tbaa !146
  %12 = call noundef i64 @_ZNKSt6vectorIN12colvarmodule7rvectorESaIS1_EE4sizeEv(ptr noundef nonnull align 8 dereferenceable(24) %11) #16
  %13 = icmp ult i64 %10, %12
  br i1 %13, label %14, label %144

14:                                               ; preds = %9
  %15 = load ptr, ptr %5, align 8, !tbaa !146
  %16 = load i64, ptr %7, align 8, !tbaa !11
  %17 = call noundef nonnull align 8 dereferenceable(24) ptr @_ZNKSt6vectorIN12colvarmodule7rvectorESaIS1_EEixEm(ptr noundef nonnull align 8 dereferenceable(24) %15, i64 noundef %16) #16
  %18 = getelementptr inbounds nuw %"class.colvarmodule::rvector", ptr %17, i32 0, i32 0
  %19 = load double, ptr %18, align 8, !tbaa !13
  %20 = load ptr, ptr %6, align 8, !tbaa !146
  %21 = load i64, ptr %7, align 8, !tbaa !11
  %22 = call noundef nonnull align 8 dereferenceable(24) ptr @_ZNKSt6vectorIN12colvarmodule7rvectorESaIS1_EEixEm(ptr noundef nonnull align 8 dereferenceable(24) %20, i64 noundef %21) #16
  %23 = getelementptr inbounds nuw %"class.colvarmodule::rvector", ptr %22, i32 0, i32 0
  %24 = load double, ptr %23, align 8, !tbaa !13
  %25 = getelementptr inbounds nuw %"class.colvarmodule::rotation", ptr %8, i32 0, i32 0
  %26 = getelementptr inbounds nuw %"class.colvarmodule::rmatrix", ptr %25, i32 0, i32 0
  %27 = load double, ptr %26, align 8, !tbaa !148
  %28 = call double @llvm.fmuladd.f64(double %19, double %24, double %27)
  store double %28, ptr %26, align 8, !tbaa !148
  %29 = load ptr, ptr %5, align 8, !tbaa !146
  %30 = load i64, ptr %7, align 8, !tbaa !11
  %31 = call noundef nonnull align 8 dereferenceable(24) ptr @_ZNKSt6vectorIN12colvarmodule7rvectorESaIS1_EEixEm(ptr noundef nonnull align 8 dereferenceable(24) %29, i64 noundef %30) #16
  %32 = getelementptr inbounds nuw %"class.colvarmodule::rvector", ptr %31, i32 0, i32 0
  %33 = load double, ptr %32, align 8, !tbaa !13
  %34 = load ptr, ptr %6, align 8, !tbaa !146
  %35 = load i64, ptr %7, align 8, !tbaa !11
  %36 = call noundef nonnull align 8 dereferenceable(24) ptr @_ZNKSt6vectorIN12colvarmodule7rvectorESaIS1_EEixEm(ptr noundef nonnull align 8 dereferenceable(24) %34, i64 noundef %35) #16
  %37 = getelementptr inbounds nuw %"class.colvarmodule::rvector", ptr %36, i32 0, i32 1
  %38 = load double, ptr %37, align 8, !tbaa !16
  %39 = getelementptr inbounds nuw %"class.colvarmodule::rotation", ptr %8, i32 0, i32 0
  %40 = getelementptr inbounds nuw %"class.colvarmodule::rmatrix", ptr %39, i32 0, i32 1
  %41 = load double, ptr %40, align 8, !tbaa !149
  %42 = call double @llvm.fmuladd.f64(double %33, double %38, double %41)
  store double %42, ptr %40, align 8, !tbaa !149
  %43 = load ptr, ptr %5, align 8, !tbaa !146
  %44 = load i64, ptr %7, align 8, !tbaa !11
  %45 = call noundef nonnull align 8 dereferenceable(24) ptr @_ZNKSt6vectorIN12colvarmodule7rvectorESaIS1_EEixEm(ptr noundef nonnull align 8 dereferenceable(24) %43, i64 noundef %44) #16
  %46 = getelementptr inbounds nuw %"class.colvarmodule::rvector", ptr %45, i32 0, i32 0
  %47 = load double, ptr %46, align 8, !tbaa !13
  %48 = load ptr, ptr %6, align 8, !tbaa !146
  %49 = load i64, ptr %7, align 8, !tbaa !11
  %50 = call noundef nonnull align 8 dereferenceable(24) ptr @_ZNKSt6vectorIN12colvarmodule7rvectorESaIS1_EEixEm(ptr noundef nonnull align 8 dereferenceable(24) %48, i64 noundef %49) #16
  %51 = getelementptr inbounds nuw %"class.colvarmodule::rvector", ptr %50, i32 0, i32 2
  %52 = load double, ptr %51, align 8, !tbaa !17
  %53 = getelementptr inbounds nuw %"class.colvarmodule::rotation", ptr %8, i32 0, i32 0
  %54 = getelementptr inbounds nuw %"class.colvarmodule::rmatrix", ptr %53, i32 0, i32 2
  %55 = load double, ptr %54, align 8, !tbaa !150
  %56 = call double @llvm.fmuladd.f64(double %47, double %52, double %55)
  store double %56, ptr %54, align 8, !tbaa !150
  %57 = load ptr, ptr %5, align 8, !tbaa !146
  %58 = load i64, ptr %7, align 8, !tbaa !11
  %59 = call noundef nonnull align 8 dereferenceable(24) ptr @_ZNKSt6vectorIN12colvarmodule7rvectorESaIS1_EEixEm(ptr noundef nonnull align 8 dereferenceable(24) %57, i64 noundef %58) #16
  %60 = getelementptr inbounds nuw %"class.colvarmodule::rvector", ptr %59, i32 0, i32 1
  %61 = load double, ptr %60, align 8, !tbaa !16
  %62 = load ptr, ptr %6, align 8, !tbaa !146
  %63 = load i64, ptr %7, align 8, !tbaa !11
  %64 = call noundef nonnull align 8 dereferenceable(24) ptr @_ZNKSt6vectorIN12colvarmodule7rvectorESaIS1_EEixEm(ptr noundef nonnull align 8 dereferenceable(24) %62, i64 noundef %63) #16
  %65 = getelementptr inbounds nuw %"class.colvarmodule::rvector", ptr %64, i32 0, i32 0
  %66 = load double, ptr %65, align 8, !tbaa !13
  %67 = getelementptr inbounds nuw %"class.colvarmodule::rotation", ptr %8, i32 0, i32 0
  %68 = getelementptr inbounds nuw %"class.colvarmodule::rmatrix", ptr %67, i32 0, i32 3
  %69 = load double, ptr %68, align 8, !tbaa !151
  %70 = call double @llvm.fmuladd.f64(double %61, double %66, double %69)
  store double %70, ptr %68, align 8, !tbaa !151
  %71 = load ptr, ptr %5, align 8, !tbaa !146
  %72 = load i64, ptr %7, align 8, !tbaa !11
  %73 = call noundef nonnull align 8 dereferenceable(24) ptr @_ZNKSt6vectorIN12colvarmodule7rvectorESaIS1_EEixEm(ptr noundef nonnull align 8 dereferenceable(24) %71, i64 noundef %72) #16
  %74 = getelementptr inbounds nuw %"class.colvarmodule::rvector", ptr %73, i32 0, i32 1
  %75 = load double, ptr %74, align 8, !tbaa !16
  %76 = load ptr, ptr %6, align 8, !tbaa !146
  %77 = load i64, ptr %7, align 8, !tbaa !11
  %78 = call noundef nonnull align 8 dereferenceable(24) ptr @_ZNKSt6vectorIN12colvarmodule7rvectorESaIS1_EEixEm(ptr noundef nonnull align 8 dereferenceable(24) %76, i64 noundef %77) #16
  %79 = getelementptr inbounds nuw %"class.colvarmodule::rvector", ptr %78, i32 0, i32 1
  %80 = load double, ptr %79, align 8, !tbaa !16
  %81 = getelementptr inbounds nuw %"class.colvarmodule::rotation", ptr %8, i32 0, i32 0
  %82 = getelementptr inbounds nuw %"class.colvarmodule::rmatrix", ptr %81, i32 0, i32 4
  %83 = load double, ptr %82, align 8, !tbaa !152
  %84 = call double @llvm.fmuladd.f64(double %75, double %80, double %83)
  store double %84, ptr %82, align 8, !tbaa !152
  %85 = load ptr, ptr %5, align 8, !tbaa !146
  %86 = load i64, ptr %7, align 8, !tbaa !11
  %87 = call noundef nonnull align 8 dereferenceable(24) ptr @_ZNKSt6vectorIN12colvarmodule7rvectorESaIS1_EEixEm(ptr noundef nonnull align 8 dereferenceable(24) %85, i64 noundef %86) #16
  %88 = getelementptr inbounds nuw %"class.colvarmodule::rvector", ptr %87, i32 0, i32 1
  %89 = load double, ptr %88, align 8, !tbaa !16
  %90 = load ptr, ptr %6, align 8, !tbaa !146
  %91 = load i64, ptr %7, align 8, !tbaa !11
  %92 = call noundef nonnull align 8 dereferenceable(24) ptr @_ZNKSt6vectorIN12colvarmodule7rvectorESaIS1_EEixEm(ptr noundef nonnull align 8 dereferenceable(24) %90, i64 noundef %91) #16
  %93 = getelementptr inbounds nuw %"class.colvarmodule::rvector", ptr %92, i32 0, i32 2
  %94 = load double, ptr %93, align 8, !tbaa !17
  %95 = getelementptr inbounds nuw %"class.colvarmodule::rotation", ptr %8, i32 0, i32 0
  %96 = getelementptr inbounds nuw %"class.colvarmodule::rmatrix", ptr %95, i32 0, i32 5
  %97 = load double, ptr %96, align 8, !tbaa !153
  %98 = call double @llvm.fmuladd.f64(double %89, double %94, double %97)
  store double %98, ptr %96, align 8, !tbaa !153
  %99 = load ptr, ptr %5, align 8, !tbaa !146
  %100 = load i64, ptr %7, align 8, !tbaa !11
  %101 = call noundef nonnull align 8 dereferenceable(24) ptr @_ZNKSt6vectorIN12colvarmodule7rvectorESaIS1_EEixEm(ptr noundef nonnull align 8 dereferenceable(24) %99, i64 noundef %100) #16
  %102 = getelementptr inbounds nuw %"class.colvarmodule::rvector", ptr %101, i32 0, i32 2
  %103 = load double, ptr %102, align 8, !tbaa !17
  %104 = load ptr, ptr %6, align 8, !tbaa !146
  %105 = load i64, ptr %7, align 8, !tbaa !11
  %106 = call noundef nonnull align 8 dereferenceable(24) ptr @_ZNKSt6vectorIN12colvarmodule7rvectorESaIS1_EEixEm(ptr noundef nonnull align 8 dereferenceable(24) %104, i64 noundef %105) #16
  %107 = getelementptr inbounds nuw %"class.colvarmodule::rvector", ptr %106, i32 0, i32 0
  %108 = load double, ptr %107, align 8, !tbaa !13
  %109 = getelementptr inbounds nuw %"class.colvarmodule::rotation", ptr %8, i32 0, i32 0
  %110 = getelementptr inbounds nuw %"class.colvarmodule::rmatrix", ptr %109, i32 0, i32 6
  %111 = load double, ptr %110, align 8, !tbaa !154
  %112 = call double @llvm.fmuladd.f64(double %103, double %108, double %111)
  store double %112, ptr %110, align 8, !tbaa !154
  %113 = load ptr, ptr %5, align 8, !tbaa !146
  %114 = load i64, ptr %7, align 8, !tbaa !11
  %115 = call noundef nonnull align 8 dereferenceable(24) ptr @_ZNKSt6vectorIN12colvarmodule7rvectorESaIS1_EEixEm(ptr noundef nonnull align 8 dereferenceable(24) %113, i64 noundef %114) #16
  %116 = getelementptr inbounds nuw %"class.colvarmodule::rvector", ptr %115, i32 0, i32 2
  %117 = load double, ptr %116, align 8, !tbaa !17
  %118 = load ptr, ptr %6, align 8, !tbaa !146
  %119 = load i64, ptr %7, align 8, !tbaa !11
  %120 = call noundef nonnull align 8 dereferenceable(24) ptr @_ZNKSt6vectorIN12colvarmodule7rvectorESaIS1_EEixEm(ptr noundef nonnull align 8 dereferenceable(24) %118, i64 noundef %119) #16
  %121 = getelementptr inbounds nuw %"class.colvarmodule::rvector", ptr %120, i32 0, i32 1
  %122 = load double, ptr %121, align 8, !tbaa !16
  %123 = getelementptr inbounds nuw %"class.colvarmodule::rotation", ptr %8, i32 0, i32 0
  %124 = getelementptr inbounds nuw %"class.colvarmodule::rmatrix", ptr %123, i32 0, i32 7
  %125 = load double, ptr %124, align 8, !tbaa !155
  %126 = call double @llvm.fmuladd.f64(double %117, double %122, double %125)
  store double %126, ptr %124, align 8, !tbaa !155
  %127 = load ptr, ptr %5, align 8, !tbaa !146
  %128 = load i64, ptr %7, align 8, !tbaa !11
  %129 = call noundef nonnull align 8 dereferenceable(24) ptr @_ZNKSt6vectorIN12colvarmodule7rvectorESaIS1_EEixEm(ptr noundef nonnull align 8 dereferenceable(24) %127, i64 noundef %128) #16
  %130 = getelementptr inbounds nuw %"class.colvarmodule::rvector", ptr %129, i32 0, i32 2
  %131 = load double, ptr %130, align 8, !tbaa !17
  %132 = load ptr, ptr %6, align 8, !tbaa !146
  %133 = load i64, ptr %7, align 8, !tbaa !11
  %134 = call noundef nonnull align 8 dereferenceable(24) ptr @_ZNKSt6vectorIN12colvarmodule7rvectorESaIS1_EEixEm(ptr noundef nonnull align 8 dereferenceable(24) %132, i64 noundef %133) #16
  %135 = getelementptr inbounds nuw %"class.colvarmodule::rvector", ptr %134, i32 0, i32 2
  %136 = load double, ptr %135, align 8, !tbaa !17
  %137 = getelementptr inbounds nuw %"class.colvarmodule::rotation", ptr %8, i32 0, i32 0
  %138 = getelementptr inbounds nuw %"class.colvarmodule::rmatrix", ptr %137, i32 0, i32 8
  %139 = load double, ptr %138, align 8, !tbaa !156
  %140 = call double @llvm.fmuladd.f64(double %131, double %136, double %139)
  store double %140, ptr %138, align 8, !tbaa !156
  br label %141

141:                                              ; preds = %14
  %142 = load i64, ptr %7, align 8, !tbaa !11
  %143 = add i64 %142, 1
  store i64 %143, ptr %7, align 8, !tbaa !11
  br label %9, !llvm.loop !157

144:                                              ; preds = %9
  call void @llvm.lifetime.end.p0(i64 8, ptr %7) #16
  ret void
}