; Function Attrs: mustprogress nofree norecurse nosync nounwind memory(read, argmem: readwrite, inaccessiblemem: none) uwtable
define void @_ZN12colvarmodule8rotation24build_correlation_matrixERKSt6vectorINS_7rvectorESaIS2_EES6_(ptr noundef nonnull align 8 captures(none) dereferenceable(568) %0, ptr noundef nonnull readonly align 8 captures(none) dereferenceable(24) %1, ptr noundef nonnull readonly align 8 captures(none) dereferenceable(24) %2) local_unnamed_addr #10 align 2 {
  %4 = getelementptr inbounds nuw i8, ptr %1, i64 8
  %5 = load ptr, ptr %4, align 8, !tbaa !72
  %6 = load ptr, ptr %1, align 8, !tbaa !75
  %.not = icmp eq ptr %5, %6
  br i1 %.not, label %52, label %.lr.ph

.lr.ph:                                           ; preds = %3
  %7 = ptrtoint ptr %5 to i64
  %8 = ptrtoint ptr %6 to i64
  %9 = sub i64 %7, %8
  %10 = sdiv exact i64 %9, 24
  %.promoted = load double, ptr %0, align 8
  %11 = load ptr, ptr %2, align 8, !tbaa !75
  %12 = getelementptr inbounds nuw i8, ptr %0, i64 8
  %13 = getelementptr inbounds nuw i8, ptr %0, i64 16
  %14 = getelementptr inbounds nuw i8, ptr %0, i64 24
  %15 = getelementptr inbounds nuw i8, ptr %0, i64 32
  %16 = getelementptr inbounds nuw i8, ptr %0, i64 40
  %17 = getelementptr inbounds nuw i8, ptr %0, i64 48
  %18 = getelementptr inbounds nuw i8, ptr %0, i64 56
  %19 = getelementptr inbounds nuw i8, ptr %0, i64 64
  %.promoted40 = load double, ptr %12, align 8, !tbaa !76
  %.promoted42 = load double, ptr %13, align 8, !tbaa !77
  %.promoted44 = load double, ptr %14, align 8, !tbaa !78
  %.promoted46 = load double, ptr %15, align 8, !tbaa !79
  %.promoted48 = load double, ptr %16, align 8, !tbaa !80
  %.promoted50 = load double, ptr %17, align 8, !tbaa !81
  %.promoted52 = load double, ptr %18, align 8, !tbaa !82
  %.promoted54 = load double, ptr %19, align 8, !tbaa !83
  %umax = tail call i64 @llvm.umax.i64(i64 %10, i64 1)
  br label %20

20:                                               ; preds = %.lr.ph, %20
  %21 = phi double [ %.promoted54, %.lr.ph ], [ %50, %20 ]
  %22 = phi double [ %.promoted52, %.lr.ph ], [ %49, %20 ]
  %23 = phi double [ %.promoted50, %.lr.ph ], [ %48, %20 ]
  %24 = phi double [ %.promoted48, %.lr.ph ], [ %45, %20 ]
  %25 = phi double [ %.promoted46, %.lr.ph ], [ %44, %20 ]
  %26 = phi double [ %.promoted44, %.lr.ph ], [ %43, %20 ]
  %27 = phi double [ %.promoted42, %.lr.ph ], [ %40, %20 ]
  %28 = phi double [ %.promoted40, %.lr.ph ], [ %37, %20 ]
  %.039 = phi i64 [ 0, %.lr.ph ], [ %51, %20 ]
  %29 = phi double [ %.promoted, %.lr.ph ], [ %34, %20 ]
  %30 = getelementptr inbounds nuw %"class.colvarmodule::rvector", ptr %6, i64 %.039
  %31 = load double, ptr %30, align 8, !tbaa !23
  %32 = getelementptr inbounds nuw %"class.colvarmodule::rvector", ptr %11, i64 %.039
  %33 = load double, ptr %32, align 8, !tbaa !23
  %34 = tail call double @llvm.fmuladd.f64(double %31, double %33, double %29)
  %35 = getelementptr inbounds nuw i8, ptr %32, i64 8
  %36 = load double, ptr %35, align 8, !tbaa !26
  %37 = tail call double @llvm.fmuladd.f64(double %31, double %36, double %28)
  %38 = getelementptr inbounds nuw i8, ptr %32, i64 16
  %39 = load double, ptr %38, align 8, !tbaa !27
  %40 = tail call double @llvm.fmuladd.f64(double %31, double %39, double %27)
  %41 = getelementptr inbounds nuw i8, ptr %30, i64 8
  %42 = load double, ptr %41, align 8, !tbaa !26
  %43 = tail call double @llvm.fmuladd.f64(double %42, double %33, double %26)
  %44 = tail call double @llvm.fmuladd.f64(double %42, double %36, double %25)
  %45 = tail call double @llvm.fmuladd.f64(double %42, double %39, double %24)
  %46 = getelementptr inbounds nuw i8, ptr %30, i64 16
  %47 = load double, ptr %46, align 8, !tbaa !27
  %48 = tail call double @llvm.fmuladd.f64(double %47, double %33, double %23)
  %49 = tail call double @llvm.fmuladd.f64(double %47, double %36, double %22)
  %50 = tail call double @llvm.fmuladd.f64(double %47, double %39, double %21)
  %51 = add nuw i64 %.039, 1
  %exitcond.not = icmp eq i64 %51, %umax
  br i1 %exitcond.not, label %._crit_edge, label %20, !llvm.loop !84

._crit_edge:                                      ; preds = %20
  store double %34, ptr %0, align 8, !tbaa !86
  store double %37, ptr %12, align 8, !tbaa !76
  store double %40, ptr %13, align 8, !tbaa !77
  store double %43, ptr %14, align 8, !tbaa !78
  store double %44, ptr %15, align 8, !tbaa !79
  store double %45, ptr %16, align 8, !tbaa !80
  store double %48, ptr %17, align 8, !tbaa !81
  store double %49, ptr %18, align 8, !tbaa !82
  store double %50, ptr %19, align 8, !tbaa !83
  br label %52

52:                                               ; preds = %._crit_edge, %3
  ret void
}